target datalayout = "e-m:e-p270:32:32-p271:32:32-p272:64:64-i64:64-i128:128-f80:128-n8:16:32:64-S128"
target triple = "x86_64-pc-linux-gnu"

%struct._GtkTreeIter = type { i32, ptr, ptr, ptr }

; Function Attrs: nounwind uwtable
define internal i32 @_find_tag_iter_tagname(ptr noundef %0, ptr noundef %1, ptr noundef %2, i32 noundef %3) #0 {
  %5 = alloca i32, align 4
  %6 = alloca ptr, align 8
  %7 = alloca ptr, align 8
  %8 = alloca ptr, align 8
  %9 = alloca i32, align 4
  %10 = alloca i32, align 4
  %11 = alloca i32, align 4
  %12 = alloca ptr, align 8
  %13 = alloca ptr, align 8
  %14 = alloca %struct._GtkTreeIter, align 8
  %15 = alloca %struct._GtkTreeIter, align 8
  store ptr %0, ptr %6, align 8, !tbaa !36
  store ptr %1, ptr %7, align 8, !tbaa !134
  store ptr %2, ptr %8, align 8, !tbaa !49
  store i32 %3, ptr %9, align 4, !tbaa !31
  call void @llvm.lifetime.start.p0(i64 4, ptr %10) #11
  store i32 0, ptr %10, align 4, !tbaa !31
  %16 = load ptr, ptr %8, align 8, !tbaa !49
  %17 = icmp ne ptr %16, null
  br i1 %17, label %20, label %18

18:                                               ; preds = %4
  %19 = load i32, ptr %10, align 4, !tbaa !31
  store i32 %19, ptr %5, align 4
  store i32 1, ptr %11, align 4
  br label %78

20:                                               ; preds = %4
  call void @llvm.lifetime.start.p0(i64 8, ptr %12) #11
  br label %21

21:                                               ; preds = %70, %20
  %22 = load ptr, ptr %6, align 8, !tbaa !36
  %23 = load ptr, ptr %7, align 8, !tbaa !134
  call void (ptr, ptr, ...) @gtk_tree_model_get(ptr noundef %22, ptr noundef %23, i32 noundef 2, ptr noundef %12, i32 noundef -1)
  %24 = load i32, ptr %9, align 4, !tbaa !31
  %25 = icmp ne i32 %24, 0
  br i1 %25, label %26, label %37

26:                                               ; preds = %21
  call void @llvm.lifetime.start.p0(i64 8, ptr %13) #11
  %27 = load ptr, ptr %12, align 8, !tbaa !49
  %28 = call noalias ptr @g_utf8_strdown(ptr noundef %27, i64 noundef -1)
  store ptr %28, ptr %13, align 8, !tbaa !49
  %29 = load ptr, ptr %13, align 8, !tbaa !49
  %30 = load ptr, ptr %13, align 8, !tbaa !49
  %31 = call i64 @strlen(ptr noundef %30) #13
  %32 = load ptr, ptr %8, align 8, !tbaa !49
  %33 = call ptr @g_strstr_len(ptr noundef %29, i64 noundef %31, ptr noundef %32)
  %34 = icmp ne ptr %33, null
  %35 = zext i1 %34 to i32
  store i32 %35, ptr %10, align 4, !tbaa !31
  %36 = load ptr, ptr %13, align 8, !tbaa !49
  call void @g_free(ptr noundef %36)
  call void @llvm.lifetime.end.p0(i64 8, ptr %13) #11
  br label %44

37:                                               ; preds = %21
  %38 = load ptr, ptr %8, align 8, !tbaa !49
  %39 = load ptr, ptr %12, align 8, !tbaa !49
  %40 = call i32 @g_strcmp0(ptr noundef %38, ptr noundef %39)
  %41 = icmp ne i32 %40, 0
  %42 = xor i1 %41, true
  %43 = zext i1 %42 to i32
  store i32 %43, ptr %10, align 4, !tbaa !31
  br label %44

44:                                               ; preds = %37, %26
  %45 = load ptr, ptr %12, align 8, !tbaa !49
  call void @g_free(ptr noundef %45)
  %46 = load i32, ptr %10, align 4, !tbaa !31
  %47 = icmp ne i32 %46, 0
  br i1 %47, label %48, label %50

48:                                               ; preds = %44
  %49 = load i32, ptr %10, align 4, !tbaa !31
  store i32 %49, ptr %5, align 4
  store i32 1, ptr %11, align 4
  br label %77

50:                                               ; preds = %44
  call void @llvm.lifetime.start.p0(i64 32, ptr %14) #11
  call void @llvm.lifetime.start.p0(i64 32, ptr %15) #11
  %51 = load ptr, ptr %7, align 8, !tbaa !134
  call void @llvm.memcpy.p0.p0.i64(ptr align 8 %15, ptr align 8 %51, i64 32, i1 false), !tbaa.struct !50
  %52 = load ptr, ptr %6, align 8, !tbaa !36
  %53 = call i32 @gtk_tree_model_iter_children(ptr noundef %52, ptr noundef %14, ptr noundef %15)
  %54 = icmp ne i32 %53, 0
  br i1 %54, label %55, label %66

55:                                               ; preds = %50
  %56 = load ptr, ptr %6, align 8, !tbaa !36
  %57 = load ptr, ptr %8, align 8, !tbaa !49
  %58 = load i32, ptr %9, align 4, !tbaa !31
  %59 = call i32 @_find_tag_iter_tagname(ptr noundef %56, ptr noundef %14, ptr noundef %57, i32 noundef %58)
  store i32 %59, ptr %10, align 4, !tbaa !31
  %60 = load i32, ptr %10, align 4, !tbaa !31
  %61 = icmp ne i32 %60, 0
  br i1 %61, label %62, label %65

62:                                               ; preds = %55
  %63 = load ptr, ptr %7, align 8, !tbaa !134
  call void @llvm.memcpy.p0.p0.i64(ptr align 8 %63, ptr align 8 %14, i64 32, i1 false), !tbaa.struct !50
  %64 = load i32, ptr %10, align 4, !tbaa !31
  store i32 %64, ptr %5, align 4
  store i32 1, ptr %11, align 4
  br label %67

65:                                               ; preds = %55
  br label %66

66:                                               ; preds = %65, %50
  store i32 0, ptr %11, align 4
  br label %67

67:                                               ; preds = %66, %62
  call void @llvm.lifetime.end.p0(i64 32, ptr %15) #11
  call void @llvm.lifetime.end.p0(i64 32, ptr %14) #11
  %68 = load i32, ptr %11, align 4
  switch i32 %68, label %77 [
    i32 0, label %69
  ]

69:                                               ; preds = %67
  br label %70

70:                                               ; preds = %69
  %71 = load ptr, ptr %6, align 8, !tbaa !36
  %72 = load ptr, ptr %7, align 8, !tbaa !134
  %73 = call i32 @gtk_tree_model_iter_next(ptr noundef %71, ptr noundef %72)
  %74 = icmp ne i32 %73, 0
  br i1 %74, label %21, label %75

75:                                               ; preds = %70
  %76 = load i32, ptr %10, align 4, !tbaa !31
  store i32 %76, ptr %5, align 4
  store i32 1, ptr %11, align 4
  br label %77

77:                                               ; preds = %75, %67, %48
  call void @llvm.lifetime.end.p0(i64 8, ptr %12) #11
  br label %78

78:                                               ; preds = %77, %18
  call void @llvm.lifetime.end.p0(i64 4, ptr %10) #11
  %79 = load i32, ptr %5, align 4
  ret i32 %79
}