; Function Attrs: nounwind uwtable
define internal fastcc noundef range(i32 0, 2) i32 @_find_tag_iter_tagname(ptr noundef %0, ptr noundef nonnull %1, ptr noundef %2, i32 noundef range(i32 0, 2) %3) unnamed_addr #1 {
  %5 = alloca ptr, align 8
  %6 = alloca %struct._GtkTreeIter, align 8
  %7 = alloca %struct._GtkTreeIter, align 8
  %.not = icmp eq ptr %2, null
  br i1 %.not, label %29, label %8

8:                                                ; preds = %4
  call void @llvm.lifetime.start.p0(i64 8, ptr nonnull %5) #16
  %.not31 = icmp eq i32 %3, 0
  br i1 %.not31, label %.split.us, label %.split

.split.us:                                        ; preds = %8, %16
  call void (ptr, ptr, ...) @gtk_tree_model_get(ptr noundef %0, ptr noundef nonnull %1, i32 noundef 2, ptr noundef nonnull %5, i32 noundef -1) #16
  %9 = load ptr, ptr %5, align 8, !tbaa !31
  %10 = call i32 @g_strcmp0(ptr noundef nonnull %2, ptr noundef %9) #16
  %.not32.us = icmp eq i32 %10, 0
  %11 = load ptr, ptr %5, align 8, !tbaa !31
  call void @g_free(ptr noundef %11) #16
  br i1 %.not32.us, label %.loopexit, label %12

12:                                               ; preds = %.split.us
  call void @llvm.lifetime.start.p0(i64 32, ptr nonnull %6) #16
  call void @llvm.lifetime.start.p0(i64 32, ptr nonnull %7) #16
  call void @llvm.memcpy.p0.p0.i64(ptr noundef nonnull align 8 dereferenceable(32) %7, ptr noundef nonnull align 8 dereferenceable(32) %1, i64 32, i1 false), !tbaa.struct !45
  %13 = call i32 @gtk_tree_model_iter_children(ptr noundef %0, ptr noundef nonnull %6, ptr noundef nonnull %7) #16
  %.not33.us = icmp eq i32 %13, 0
  br i1 %.not33.us, label %16, label %14

14:                                               ; preds = %12
  %15 = call fastcc i32 @_find_tag_iter_tagname(ptr noundef %0, ptr noundef %6, ptr noundef nonnull %2, i32 noundef 0)
  %.not34.us = icmp eq i32 %15, 0
  br i1 %.not34.us, label %16, label %.split41.us

16:                                               ; preds = %14, %12
  call void @llvm.lifetime.end.p0(i64 32, ptr nonnull %7) #16
  call void @llvm.lifetime.end.p0(i64 32, ptr nonnull %6) #16
  %17 = call i32 @gtk_tree_model_iter_next(ptr noundef %0, ptr noundef nonnull %1) #16
  %.not35.us = icmp eq i32 %17, 0
  br i1 %.not35.us, label %.loopexit, label %.split.us

.split:                                           ; preds = %8, %27
  call void (ptr, ptr, ...) @gtk_tree_model_get(ptr noundef %0, ptr noundef nonnull %1, i32 noundef 2, ptr noundef nonnull %5, i32 noundef -1) #16
  %18 = load ptr, ptr %5, align 8, !tbaa !31
  %19 = call noalias ptr @g_utf8_strdown(ptr noundef %18, i64 noundef -1) #16
  %20 = call i64 @strlen(ptr noundef nonnull dereferenceable(1) %19) #18
  %21 = call ptr @g_strstr_len(ptr noundef nonnull %19, i64 noundef %20, ptr noundef nonnull %2) #16
  %.not39 = icmp eq ptr %21, null
  call void @g_free(ptr noundef nonnull %19) #16
  %22 = load ptr, ptr %5, align 8, !tbaa !31
  call void @g_free(ptr noundef %22) #16
  br i1 %.not39, label %23, label %.loopexit

23:                                               ; preds = %.split
  call void @llvm.lifetime.start.p0(i64 32, ptr nonnull %6) #16
  call void @llvm.lifetime.start.p0(i64 32, ptr nonnull %7) #16
  call void @llvm.memcpy.p0.p0.i64(ptr noundef nonnull align 8 dereferenceable(32) %7, ptr noundef nonnull align 8 dereferenceable(32) %1, i64 32, i1 false), !tbaa.struct !45
  %24 = call i32 @gtk_tree_model_iter_children(ptr noundef %0, ptr noundef nonnull %6, ptr noundef nonnull %7) #16
  %.not33 = icmp eq i32 %24, 0
  br i1 %.not33, label %27, label %25

25:                                               ; preds = %23
  %26 = call fastcc i32 @_find_tag_iter_tagname(ptr noundef %0, ptr noundef %6, ptr noundef nonnull %2, i32 noundef %3)
  %.not34 = icmp eq i32 %26, 0
  br i1 %.not34, label %27, label %.split41.us

.split41.us:                                      ; preds = %25, %14
  call void @llvm.memcpy.p0.p0.i64(ptr noundef nonnull align 8 dereferenceable(32) %1, ptr noundef nonnull align 8 dereferenceable(32) %6, i64 32, i1 false), !tbaa.struct !45
  call void @llvm.lifetime.end.p0(i64 32, ptr nonnull %7) #16
  call void @llvm.lifetime.end.p0(i64 32, ptr nonnull %6) #16
  br label %.loopexit

27:                                               ; preds = %25, %23
  call void @llvm.lifetime.end.p0(i64 32, ptr nonnull %7) #16
  call void @llvm.lifetime.end.p0(i64 32, ptr nonnull %6) #16
  %28 = call i32 @gtk_tree_model_iter_next(ptr noundef %0, ptr noundef nonnull %1) #16
  %.not35 = icmp eq i32 %28, 0
  br i1 %.not35, label %.loopexit, label %.split

.loopexit:                                        ; preds = %27, %.split, %16, %.split.us, %.split41.us
  %.2 = phi i32 [ 1, %.split41.us ], [ 0, %16 ], [ 1, %.split.us ], [ 1, %.split ], [ 0, %27 ]
  call void @llvm.lifetime.end.p0(i64 8, ptr nonnull %5) #16
  br label %29

29:                                               ; preds = %4, %.loopexit
  %.0 = phi i32 [ %.2, %.loopexit ], [ 0, %4 ]
  ret i32 %.0
}